; Function Attrs: null_pointer_is_valid sspstrong uwtable
define internal void @dissect_hello_ip_authentication_clv(ptr noundef %0, ptr readnone captures(none) %1, ptr noundef %2, i32 noundef %3, ptr readnone captures(none) %4, i32 noundef %5) #0 {
  %.not = icmp eq i32 %5, 0
  br i1 %.not, label %10, label %7

7:                                                ; preds = %6
  %8 = load i32, ptr @hf_isis_hello_clv_ip_authentication, align 4
  %9 = tail call ptr @proto_tree_add_item(ptr noundef %2, i32 noundef %8, ptr noundef %0, i32 noundef %3, i32 noundef %5, i32 noundef 0)
  br label %10

10:                                               ; preds = %7, %6
  ret void
}